target datalayout = "e-m:e-p270:32:32-p271:32:32-p272:64:64-i64:64-i128:128-f80:128-n8:16:32:64-S128"
target triple = "x86_64-pc-linux-gnu"

%struct.Mini_Aig_t_ = type { i32, i32, i32, ptr }

@.str.4 = private unnamed_addr constant [3 x i8] c"rb\00", align 1
@.str.37 = private unnamed_addr constant [36 x i8] c"Cannot open file for reading \22%s\22.\0A\00", align 1

; Function Attrs: nounwind uwtable
define internal ptr @Mini_AigLoad(ptr noundef %0) #0 {
  %2 = alloca ptr, align 8
  %3 = alloca ptr, align 8
  %4 = alloca ptr, align 8
  %5 = alloca ptr, align 8
  %6 = alloca i32, align 4
  %7 = alloca i32, align 4
  %8 = alloca i32, align 4
  store ptr %0, ptr %3, align 8, !tbaa !42
  call void @llvm.lifetime.start.p0(i64 8, ptr %4) #13
  call void @llvm.lifetime.start.p0(i64 8, ptr %5) #13
  call void @llvm.lifetime.start.p0(i64 4, ptr %6) #13
  call void @llvm.lifetime.start.p0(i64 4, ptr %7) #13
  %9 = load ptr, ptr %3, align 8, !tbaa !42
  %10 = call noalias ptr @fopen(ptr noundef %9, ptr noundef @.str.4)
  store ptr %10, ptr %5, align 8, !tbaa !69
  %11 = load ptr, ptr %5, align 8, !tbaa !69
  %12 = icmp eq ptr %11, null
  br i1 %12, label %13, label %16

13:                                               ; preds = %1
  %14 = load ptr, ptr %3, align 8, !tbaa !42
  %15 = call i32 (ptr, ...) @printf(ptr noundef @.str.37, ptr noundef %14)
  store ptr null, ptr %2, align 8
  store i32 1, ptr %8, align 4
  br label %52

16:                                               ; preds = %1
  %17 = load ptr, ptr %5, align 8, !tbaa !69
  %18 = call i64 @fread(ptr noundef %7, i64 noundef 4, i64 noundef 1, ptr noundef %17)
  %19 = trunc i64 %18 to i32
  store i32 %19, ptr %6, align 4, !tbaa !12
  %20 = call noalias ptr @calloc(i64 noundef 1, i64 noundef 24) #16
  store ptr %20, ptr %4, align 8, !tbaa !10
  %21 = load i32, ptr %7, align 4, !tbaa !12
  %22 = load ptr, ptr %4, align 8, !tbaa !10
  %23 = getelementptr inbounds nuw %struct.Mini_Aig_t_, ptr %22, i32 0, i32 0
  store i32 %21, ptr %23, align 8, !tbaa !80
  %24 = load ptr, ptr %4, align 8, !tbaa !10
  %25 = getelementptr inbounds nuw %struct.Mini_Aig_t_, ptr %24, i32 0, i32 1
  store i32 %21, ptr %25, align 4, !tbaa !41
  %26 = load ptr, ptr %4, align 8, !tbaa !10
  %27 = getelementptr inbounds nuw %struct.Mini_Aig_t_, ptr %26, i32 0, i32 0
  %28 = load i32, ptr %27, align 8, !tbaa !80
  %29 = sext i32 %28 to i64
  %30 = mul i64 4, %29
  %31 = call noalias ptr @malloc(i64 noundef %30) #15
  %32 = load ptr, ptr %4, align 8, !tbaa !10
  %33 = getelementptr inbounds nuw %struct.Mini_Aig_t_, ptr %32, i32 0, i32 3
  store ptr %31, ptr %33, align 8, !tbaa !14
  %34 = load ptr, ptr %4, align 8, !tbaa !10
  %35 = getelementptr inbounds nuw %struct.Mini_Aig_t_, ptr %34, i32 0, i32 2
  %36 = load ptr, ptr %5, align 8, !tbaa !69
  %37 = call i64 @fread(ptr noundef %35, i64 noundef 4, i64 noundef 1, ptr noundef %36)
  %38 = trunc i64 %37 to i32
  store i32 %38, ptr %6, align 4, !tbaa !12
  %39 = load ptr, ptr %4, align 8, !tbaa !10
  %40 = getelementptr inbounds nuw %struct.Mini_Aig_t_, ptr %39, i32 0, i32 3
  %41 = load ptr, ptr %40, align 8, !tbaa !14
  %42 = load ptr, ptr %4, align 8, !tbaa !10
  %43 = getelementptr inbounds nuw %struct.Mini_Aig_t_, ptr %42, i32 0, i32 1
  %44 = load i32, ptr %43, align 4, !tbaa !41
  %45 = sext i32 %44 to i64
  %46 = load ptr, ptr %5, align 8, !tbaa !69
  %47 = call i64 @fread(ptr noundef %41, i64 noundef 4, i64 noundef %45, ptr noundef %46)
  %48 = trunc i64 %47 to i32
  store i32 %48, ptr %6, align 4, !tbaa !12
  %49 = load ptr, ptr %5, align 8, !tbaa !69
  %50 = call i32 @fclose(ptr noundef %49)
  %51 = load ptr, ptr %4, align 8, !tbaa !10
  store ptr %51, ptr %2, align 8
  store i32 1, ptr %8, align 4
  br label %52

52:                                               ; preds = %16, %13
  call void @llvm.lifetime.end.p0(i64 4, ptr %7) #13
  call void @llvm.lifetime.end.p0(i64 4, ptr %6) #13
  call void @llvm.lifetime.end.p0(i64 8, ptr %5) #13
  call void @llvm.lifetime.end.p0(i64 8, ptr %4) #13
  %53 = load ptr, ptr %2, align 8
  ret ptr %53
}