; Function Attrs: nofree nounwind uwtable
define internal fastcc noalias noundef ptr @Mini_AigLoad(ptr noundef %0) unnamed_addr #9 {
  %2 = alloca i32, align 4
  call void @llvm.lifetime.start.p0(i64 4, ptr nonnull %2) #25
  %3 = tail call noalias ptr @fopen(ptr noundef %0, ptr noundef nonnull @.str.4)
  %4 = icmp eq ptr %3, null
  br i1 %4, label %5, label %7

5:                                                ; preds = %1
  %6 = tail call i32 (ptr, ...) @printf(ptr noundef nonnull dereferenceable(1) @.str.37, ptr noundef %0)
  br label %23

7:                                                ; preds = %1
  %8 = call i64 @fread(ptr noundef nonnull %2, i64 noundef 4, i64 noundef 1, ptr noundef nonnull %3)
  %9 = tail call noalias dereferenceable_or_null(24) ptr @calloc(i64 noundef 1, i64 noundef 24) #28
  %10 = load i32, ptr %2, align 4, !tbaa !10
  store i32 %10, ptr %9, align 8, !tbaa !44
  %11 = getelementptr inbounds nuw i8, ptr %9, i64 4
  store i32 %10, ptr %11, align 4, !tbaa !13
  %12 = sext i32 %10 to i64
  %13 = shl nsw i64 %12, 2
  %14 = tail call noalias ptr @malloc(i64 noundef %13) #26
  %15 = getelementptr inbounds nuw i8, ptr %9, i64 16
  store ptr %14, ptr %15, align 8, !tbaa !3
  %16 = getelementptr inbounds nuw i8, ptr %9, i64 8
  %17 = tail call i64 @fread(ptr noundef nonnull %16, i64 noundef 4, i64 noundef 1, ptr noundef nonnull %3)
  %18 = load ptr, ptr %15, align 8, !tbaa !3
  %19 = load i32, ptr %11, align 4, !tbaa !13
  %20 = sext i32 %19 to i64
  %21 = tail call i64 @fread(ptr noundef %18, i64 noundef 4, i64 noundef %20, ptr noundef nonnull %3)
  %22 = tail call i32 @fclose(ptr noundef nonnull %3)
  br label %23

23:                                               ; preds = %7, %5
  %.0 = phi ptr [ null, %5 ], [ %9, %7 ]
  call void @llvm.lifetime.end.p0(i64 4, ptr nonnull %2) #25
  ret ptr %.0
}